; Function Attrs: null_pointer_is_valid sspstrong uwtable
define hidden void @proto_register_scsi_osd() local_unnamed_addr #3 {
  %1 = tail call i32 @proto_register_protocol(ptr noundef nonnull @.str.233, ptr noundef nonnull @.str.233, ptr noundef nonnull @.str.234)
  store i32 %1, ptr @proto_scsi_osd, align 4
  tail call void @proto_register_field_array(i32 noundef %1, ptr noundef nonnull @proto_register_scsi_osd.hf, i32 noundef 106)
  tail call void @proto_register_subtree_array(ptr noundef nonnull @proto_register_scsi_osd.ett, i32 noundef 11)
  %2 = load i32, ptr @proto_scsi_osd, align 4
  %3 = tail call ptr @expert_register_protocol(i32 noundef %2)
  tail call void @expert_register_field_array(ptr noundef %3, ptr noundef nonnull @proto_register_scsi_osd.ei, i32 noundef 11)
  ret void
}